; Function Attrs: mustprogress uwtable
define hidden noalias noundef ptr @_ZN8datatype10param_size4size8mk_paramER7obj_refI4sort11ast_managerE(ptr noundef nonnull readonly align 8 captures(none) dereferenceable(16) %0) local_unnamed_addr #4 align 2 personality ptr @__gxx_personality_v0 {
  %2 = tail call noalias noundef ptr @_ZN6memory8allocateEm(i64 noundef 32)
  %3 = getelementptr inbounds nuw i8, ptr %2, i64 8
  store i32 0, ptr %3, align 8, !tbaa !99
  store ptr getelementptr inbounds nuw inrange(-16, 32) (i8, ptr @_ZTVN8datatype10param_size6sparamE, i64 16), ptr %2, align 8, !tbaa !68
  %4 = getelementptr inbounds nuw i8, ptr %2, i64 16
  %5 = load ptr, ptr %0, align 8, !tbaa !3
  store ptr %5, ptr %4, align 8, !tbaa !3
  %6 = getelementptr inbounds nuw i8, ptr %2, i64 24
  %7 = getelementptr inbounds nuw i8, ptr %0, i64 8
  %8 = load ptr, ptr %7, align 8, !tbaa !54
  store ptr %8, ptr %6, align 8, !tbaa !33
  %.not.i.i.i = icmp eq ptr %5, null
  br i1 %.not.i.i.i, label %_ZN8datatype10param_size6sparamC2ER7obj_refI4sort11ast_managerE.exit, label %_ZN11ast_manager7inc_refEP3ast.exit.i.i.i

_ZN11ast_manager7inc_refEP3ast.exit.i.i.i:        ; preds = %1
  %9 = getelementptr inbounds nuw i8, ptr %5, i64 8
  %10 = load i32, ptr %9, align 4, !tbaa !21
  %11 = add i32 %10, 1
  store i32 %11, ptr %9, align 4, !tbaa !21
  br label %_ZN8datatype10param_size6sparamC2ER7obj_refI4sort11ast_managerE.exit

_ZN8datatype10param_size6sparamC2ER7obj_refI4sort11ast_managerE.exit: ; preds = %1, %_ZN11ast_manager7inc_refEP3ast.exit.i.i.i
  ret ptr %2
}